; Function Attrs: mustprogress uwtable
define noundef nonnull align 8 dereferenceable(72) ptr @_ZN4YAML7Emitter5WriteEc(ptr noundef nonnull returned align 8 dereferenceable(72) %0, i8 noundef signext %1) local_unnamed_addr #0 align 2 {
  %3 = load ptr, ptr %0, align 8, !tbaa !3
  %4 = load i8, ptr %3, align 8, !tbaa !21, !range !39, !noundef !40
  %5 = trunc nuw i8 %4 to i1
  br i1 %5, label %6, label %13

6:                                                ; preds = %2
  tail call void @_ZN4YAML7Emitter11PrepareNodeENS_15EmitterNodeType5valueE(ptr noundef nonnull align 8 dereferenceable(72) %0, i32 noundef 2)
  %7 = getelementptr inbounds nuw i8, ptr %0, i64 8
  %8 = load ptr, ptr %0, align 8, !tbaa !3
  %9 = getelementptr inbounds nuw i8, ptr %8, i64 40
  %10 = load i32, ptr %9, align 4, !tbaa !65
  %switch.selectcmp.i = icmp eq i32 %10, 5
  %switch.select.i = select i1 %switch.selectcmp.i, i32 2, i32 0
  %switch.selectcmp2.i = icmp eq i32 %10, 4
  %switch.select3.i = select i1 %switch.selectcmp2.i, i32 1, i32 %switch.select.i
  %11 = tail call noundef zeroext i1 @_ZN4YAML5Utils9WriteCharERNS_15ostream_wrapperEcNS_14StringEscaping5valueE(ptr noundef nonnull align 8 dereferenceable(57) %7, i8 noundef signext %1, i32 noundef %switch.select3.i)
  %12 = load ptr, ptr %0, align 8, !tbaa !3
  tail call void @_ZN4YAML12EmitterState13StartedScalarEv(ptr noundef nonnull align 8 dereferenceable(224) %12)
  br label %13

13:                                               ; preds = %2, %6
  ret ptr %0
}